; Function Attrs: mustprogress nounwind uwtable
define dso_local noundef zeroext i1 @_ZN6snappy13RawUncompressEPKcmPc(ptr noundef %compressed, i64 noundef %compressed_length, ptr noundef %uncompressed) local_unnamed_addr #2 {
entry:
  %reader = alloca %"class.snappy::ByteArraySource", align 8
  store ptr getelementptr inbounds ({ [7 x ptr] }, ptr @_ZTVN6snappy15ByteArraySourceE, i64 0, i32 0, i64 2), ptr %reader, align 8
  %ptr_.i = getelementptr inbounds i8, ptr %reader, i64 8
  store ptr %compressed, ptr %ptr_.i, align 8
  %left_.i = getelementptr inbounds i8, ptr %reader, i64 16
  store i64 %compressed_length, ptr %left_.i, align 8
  %call = call noundef zeroext i1 @_ZN6snappy13RawUncompressEPNS_6SourceEPc(ptr noundef nonnull %reader, ptr noundef %uncompressed)
  call void @_ZN6snappy15ByteArraySourceD1Ev(ptr noundef nonnull align 8 dereferenceable(24) %reader) #19
  ret i1 %call
}